target datalayout = "e-m:e-p270:32:32-p271:32:32-p272:64:64-i64:64-i128:128-f80:128-n8:16:32:64-S128"
target triple = "x86_64-unknown-linux-gnu"

%"class.icu_75::Normalizer2DataBuilder" = type <{ %"class.icu_75::Norms", i32, i32, i32, [20 x i32], [4 x i8], ptr, i32, [4 x i8], %"class.icu_75::UnicodeString", [256 x i8], [4 x i8], [4 x i8] }>
%"class.icu_75::Norms" = type { %"class.icu_75::UnicodeSet", %"class.icu_75::UnicodeSet", ptr, ptr, ptr }
%"class.icu_75::UnicodeSet" = type <{ %"class.icu_75::UnicodeFilter", ptr, i32, i32, i8, [7 x i8], ptr, ptr, i32, [4 x i8], ptr, i32, [4 x i8], ptr, ptr, [25 x i32], [4 x i8] }>
%"class.icu_75::UnicodeFilter" = type { %"class.icu_75::UnicodeFunctor", %"class.icu_75::UnicodeMatcher" }
%"class.icu_75::UnicodeFunctor" = type { %"class.icu_75::UObject" }
%"class.icu_75::UObject" = type { ptr }
%"class.icu_75::UnicodeMatcher" = type { ptr }
%"class.icu_75::UnicodeString" = type { %"class.icu_75::Replaceable", %"union.icu_75::UnicodeString::StackBufferOrFields" }
%"class.icu_75::Replaceable" = type { %"class.icu_75::UObject" }
%"union.icu_75::UnicodeString::StackBufferOrFields" = type { %struct.anon.0, [32 x i8] }
%struct.anon.0 = type { i16, i32, i32, ptr }

; Function Attrs: mustprogress nounwind uwtable
define dso_local void @_ZN6icu_7522Normalizer2DataBuilder11setSmallFCDEi(ptr noundef nonnull align 8 dereferenceable(860) %this, i32 noundef %c) #0 align 2 {
entry:
  %this.addr = alloca ptr, align 8
  %c.addr = alloca i32, align 4
  %lead = alloca i32, align 4
  store ptr %this, ptr %this.addr, align 8
  store i32 %c, ptr %c.addr, align 4
  %this1 = load ptr, ptr %this.addr, align 8
  %0 = load i32, ptr %c.addr, align 4
  %cmp = icmp sle i32 %0, 65535
  br i1 %cmp, label %cond.true, label %cond.false

cond.true:                                        ; preds = %entry
  %1 = load i32, ptr %c.addr, align 4
  br label %cond.end

cond.false:                                       ; preds = %entry
  %2 = load i32, ptr %c.addr, align 4
  %shr = ashr i32 %2, 10
  %add = add nsw i32 %shr, 55232
  %conv = trunc i32 %add to i16
  %conv2 = zext i16 %conv to i32
  br label %cond.end

cond.end:                                         ; preds = %cond.false, %cond.true
  %cond = phi i32 [ %1, %cond.true ], [ %conv2, %cond.false ]
  store i32 %cond, ptr %lead, align 4
  %3 = load i32, ptr %lead, align 4
  %shr3 = ashr i32 %3, 5
  %and = and i32 %shr3, 7
  %shl = shl i32 1, %and
  %smallFCD = getelementptr inbounds %"class.icu_75::Normalizer2DataBuilder", ptr %this1, i32 0, i32 10
  %4 = load i32, ptr %lead, align 4
  %shr4 = ashr i32 %4, 8
  %idxprom = sext i32 %shr4 to i64
  %arrayidx = getelementptr inbounds [256 x i8], ptr %smallFCD, i64 0, i64 %idxprom
  %5 = load i8, ptr %arrayidx, align 1
  %conv5 = zext i8 %5 to i32
  %or = or i32 %conv5, %shl
  %conv6 = trunc i32 %or to i8
  store i8 %conv6, ptr %arrayidx, align 1
  ret void
}