; Function Attrs: mustprogress nofree norecurse nosync nounwind willreturn memory(argmem: readwrite) uwtable
define dso_local void @_ZN6icu_7522Normalizer2DataBuilder11setSmallFCDEi(ptr nocapture noundef nonnull align 8 dereferenceable(860) %this, i32 noundef %c) local_unnamed_addr #11 align 2 {
entry:
  %cmp = icmp slt i32 %c, 65536
  %shr = lshr i32 %c, 10
  %conv = add nuw nsw i32 %shr, 55232
  %conv2 = and i32 %conv, 65535
  %cond = select i1 %cmp, i32 %c, i32 %conv2
  %shr3 = lshr i32 %cond, 5
  %and = and i32 %shr3, 7
  %shl = shl nuw nsw i32 1, %and
  %smallFCD = getelementptr inbounds i8, ptr %this, i64 600
  %shr4 = ashr i32 %cond, 8
  %idxprom = sext i32 %shr4 to i64
  %arrayidx = getelementptr inbounds [256 x i8], ptr %smallFCD, i64 0, i64 %idxprom
  %0 = load i8, ptr %arrayidx, align 1
  %1 = trunc i32 %shl to i8
  %conv6 = or i8 %0, %1
  store i8 %conv6, ptr %arrayidx, align 1
  ret void
}